; ModuleID = '34/3363.c'
source_filename = "34/3363.c"
target datalayout = "e-m:e-p270:32:32-p271:32:32-p272:64:64-i64:64-f80:128-n8:16:32:64-S128"
target triple = "x86_64-pc-linux-gnu"

@.str = private unnamed_addr constant [8 x i8] c"%d*3+1=\00", align 1
@.str.1 = private unnamed_addr constant [6 x i8] c"%d/2=\00", align 1
@.str.2 = private unnamed_addr constant [3 x i8] c"%d\00", align 1
@.str.3 = private unnamed_addr constant [4 x i8] c"%d\0A\00", align 1
@.str.4 = private unnamed_addr constant [4 x i8] c"End\00", align 1

; Function Attrs: noinline nounwind uwtable
define dso_local i32 @proc(i32 %0) #0 {
  %2 = alloca i32, align 4
  %3 = alloca i32, align 4
  store i32 %0, i32* %2, align 4
  %4 = load i32, i32* %2, align 4
  %5 = srem i32 %4, 2
  %6 = icmp eq i32 %5, 1
  br i1 %6, label %7, label %13

7:                                                ; preds = %1
  %8 = load i32, i32* %2, align 4
  %9 = mul nsw i32 %8, 3
  %10 = add nsw i32 %9, 1
  store i32 %10, i32* %3, align 4
  %11 = load i32, i32* %2, align 4
  %12 = call i32 (i8*, ...) @printf(i8* getelementptr inbounds ([8 x i8], [8 x i8]* @.str, i64 0, i64 0), i32 %11)
  br label %18

13:                                               ; preds = %1
  %14 = load i32, i32* %2, align 4
  %15 = sdiv i32 %14, 2
  store i32 %15, i32* %3, align 4
  %16 = load i32, i32* %2, align 4
  %17 = call i32 (i8*, ...) @printf(i8* getelementptr inbounds ([6 x i8], [6 x i8]* @.str.1, i64 0, i64 0), i32 %16)
  br label %18

18:                                               ; preds = %13, %7
  %19 = load i32, i32* %3, align 4
  ret i32 %19
}

declare dso_local i32 @printf(i8*, ...) #1

; Function Attrs: noinline nounwind uwtable
define dso_local i32 @main() #0 {
  %1 = alloca i32, align 4
  %2 = alloca i32, align 4
  store i32 0, i32* %1, align 4
  %3 = call i32 (i8*, ...) @__isoc99_scanf(i8* getelementptr inbounds ([3 x i8], [3 x i8]* @.str.2, i64 0, i64 0), i32* %2)
  br label %4

4:                                                ; preds = %7, %0
  %5 = load i32, i32* %2, align 4
  %6 = icmp sgt i32 %5, 1
  br i1 %6, label %7, label %12

7:                                                ; preds = %4
  %8 = load i32, i32* %2, align 4
  %9 = call i32 @proc(i32 %8)
  store i32 %9, i32* %2, align 4
  %10 = load i32, i32* %2, align 4
  %11 = call i32 (i8*, ...) @printf(i8* getelementptr inbounds ([4 x i8], [4 x i8]* @.str.3, i64 0, i64 0), i32 %10)
  br label %4

12:                                               ; preds = %4
  %13 = call i32 (i8*, ...) @printf(i8* getelementptr inbounds ([4 x i8], [4 x i8]* @.str.4, i64 0, i64 0))
  ret i32 0
}

declare dso_local i32 @__isoc99_scanf(i8*, ...) #1


!llvm.module.flags = !{!0}
!llvm.ident = !{!1}

!0 = !{i32 1, !"wchar_size", i32 4}
!1 = !{!"clang version 10.0.0-4ubuntu1 "}
